target datalayout = "e-m:e-p270:32:32-p271:32:32-p272:64:64-i64:64-i128:128-f80:128-n8:16:32:64-S128"
target triple = "x86_64-pc-linux-gnu"

@.str.28 = private unnamed_addr constant [34 x i8] c"../openssl/test/evp_extra_test2.c\00", align 1
@.str.216 = private unnamed_addr constant [25 x i8] c"mdctx = EVP_MD_CTX_new()\00", align 1
@.str.218 = private unnamed_addr constant [27 x i8] c"copyctx = EVP_MD_CTX_new()\00", align 1
@.str.219 = private unnamed_addr constant [35 x i8] c"EVP_MD_CTX_copy_ex(copyctx, mdctx)\00", align 1

; Function Attrs: nounwind uwtable
define internal i32 @test_evp_md_ctx_copy() #0 {
  %1 = alloca ptr, align 8
  %2 = alloca ptr, align 8
  %3 = alloca i32, align 4
  call void @llvm.lifetime.start.p0(i64 8, ptr %1) #7
  store ptr null, ptr %1, align 8, !tbaa !46
  call void @llvm.lifetime.start.p0(i64 8, ptr %2) #7
  store ptr null, ptr %2, align 8, !tbaa !46
  call void @llvm.lifetime.start.p0(i64 4, ptr %3) #7
  %4 = call ptr @EVP_MD_CTX_new()
  store ptr %4, ptr %1, align 8, !tbaa !46
  %5 = call i32 @test_ptr(ptr noundef @.str.28, i32 noundef 1346, ptr noundef @.str.216, ptr noundef %4)
  %6 = icmp ne i32 %5, 0
  br i1 %6, label %7, label %19

7:                                                ; preds = %0
  %8 = call ptr @EVP_MD_CTX_new()
  store ptr %8, ptr %2, align 8, !tbaa !46
  %9 = call i32 @test_ptr(ptr noundef @.str.28, i32 noundef 1347, ptr noundef @.str.218, ptr noundef %8)
  %10 = icmp ne i32 %9, 0
  br i1 %10, label %11, label %19

11:                                               ; preds = %7
  %12 = load ptr, ptr %2, align 8, !tbaa !46
  %13 = load ptr, ptr %1, align 8, !tbaa !46
  %14 = call i32 @EVP_MD_CTX_copy_ex(ptr noundef %12, ptr noundef %13)
  %15 = icmp ne i32 %14, 0
  %16 = zext i1 %15 to i32
  %17 = call i32 @test_true(ptr noundef @.str.28, i32 noundef 1348, ptr noundef @.str.219, i32 noundef %16)
  %18 = icmp ne i32 %17, 0
  br label %19

19:                                               ; preds = %11, %7, %0
  %20 = phi i1 [ false, %7 ], [ false, %0 ], [ %18, %11 ]
  %21 = zext i1 %20 to i32
  store i32 %21, ptr %3, align 4, !tbaa !11
  %22 = load ptr, ptr %1, align 8, !tbaa !46
  call void @EVP_MD_CTX_free(ptr noundef %22)
  %23 = load ptr, ptr %2, align 8, !tbaa !46
  call void @EVP_MD_CTX_free(ptr noundef %23)
  %24 = load i32, ptr %3, align 4, !tbaa !11
  call void @llvm.lifetime.end.p0(i64 4, ptr %3) #7
  call void @llvm.lifetime.end.p0(i64 8, ptr %2) #7
  call void @llvm.lifetime.end.p0(i64 8, ptr %1) #7
  ret i32 %24
}