; Function Attrs: nounwind uwtable
define internal range(i32 0, 2) i32 @test_evp_md_ctx_copy() #0 {
  %1 = tail call ptr @EVP_MD_CTX_new() #7
  %2 = tail call i32 @test_ptr(ptr noundef nonnull @.str.28, i32 noundef 1346, ptr noundef nonnull @.str.216, ptr noundef %1) #7
  %.not = icmp eq i32 %2, 0
  br i1 %.not, label %13, label %3

3:                                                ; preds = %0
  %4 = tail call ptr @EVP_MD_CTX_new() #7
  %5 = tail call i32 @test_ptr(ptr noundef nonnull @.str.28, i32 noundef 1347, ptr noundef nonnull @.str.218, ptr noundef %4) #7
  %.not4 = icmp eq i32 %5, 0
  br i1 %.not4, label %13, label %6

6:                                                ; preds = %3
  %7 = tail call i32 @EVP_MD_CTX_copy_ex(ptr noundef %4, ptr noundef %1) #7
  %8 = icmp ne i32 %7, 0
  %9 = zext i1 %8 to i32
  %10 = tail call i32 @test_true(ptr noundef nonnull @.str.28, i32 noundef 1348, ptr noundef nonnull @.str.219, i32 noundef %9) #7
  %11 = icmp ne i32 %10, 0
  %12 = zext i1 %11 to i32
  br label %13

13:                                               ; preds = %6, %3, %0
  %.0 = phi ptr [ %4, %6 ], [ %4, %3 ], [ null, %0 ]
  %14 = phi i32 [ %12, %6 ], [ 0, %3 ], [ 0, %0 ]
  tail call void @EVP_MD_CTX_free(ptr noundef %1) #7
  tail call void @EVP_MD_CTX_free(ptr noundef %.0) #7
  ret i32 %14
}